target datalayout = "e-m:e-p270:32:32-p271:32:32-p272:64:64-i64:64-i128:128-f80:128-n8:16:32:64-S128"
target triple = "x86_64-pc-linux-gnu"

%"class.std::optional" = type { %"struct.std::_Optional_base" }
%"struct.std::_Optional_base" = type { %"struct.std::_Optional_payload" }
%"struct.std::_Optional_payload" = type { %"struct.std::_Optional_payload_base.base", [7 x i8] }
%"struct.std::_Optional_payload_base.base" = type <{ %"union.std::_Optional_payload_base<const Luau::Type *>::_Storage", i8 }>
%"union.std::_Optional_payload_base<const Luau::Type *>::_Storage" = type { ptr }
%"class.std::__cxx11::basic_string" = type { %"struct.std::__cxx11::basic_string<char>::_Alloc_hider", i64, %union.anon }
%"struct.std::__cxx11::basic_string<char>::_Alloc_hider" = type { ptr }
%union.anon = type { i64, [8 x i8] }
%"struct.Luau::TableType" = type { %"class.std::map", %"class.std::optional.43", i32, %"struct.Luau::TypeLevel", ptr, %"class.std::optional.2", %"class.std::optional.2", %"class.std::vector", %"class.std::vector.53", %"class.std::__cxx11::basic_string", %"struct.Luau::Location", %"class.std::optional", %"class.std::vector.38", %"class.std::optional", i64 }
%"class.std::map" = type { %"class.std::_Rb_tree" }
%"class.std::_Rb_tree" = type { %"struct.std::_Rb_tree<std::__cxx11::basic_string<char>, std::pair<const std::__cxx11::basic_string<char>, Luau::Property>, std::_Select1st<std::pair<const std::__cxx11::basic_string<char>, Luau::Property>>, std::less<std::__cxx11::basic_string<char>>>::_Rb_tree_impl" }
%"struct.std::_Rb_tree<std::__cxx11::basic_string<char>, std::pair<const std::__cxx11::basic_string<char>, Luau::Property>, std::_Select1st<std::pair<const std::__cxx11::basic_string<char>, Luau::Property>>, std::less<std::__cxx11::basic_string<char>>>::_Rb_tree_impl" = type { [8 x i8], %"struct.std::_Rb_tree_header" }
%"struct.std::_Rb_tree_header" = type { %"struct.std::_Rb_tree_node_base", i64 }
%"struct.std::_Rb_tree_node_base" = type { i32, ptr, ptr, ptr }
%"class.std::optional.43" = type { %"struct.std::_Optional_base.44" }
%"struct.std::_Optional_base.44" = type { %"struct.std::_Optional_payload.46" }
%"struct.std::_Optional_payload.46" = type { %"struct.std::_Optional_payload_base.base.48", [7 x i8] }
%"struct.std::_Optional_payload_base.base.48" = type <{ %"union.std::_Optional_payload_base<Luau::TableIndexer>::_Storage", i8 }>
%"union.std::_Optional_payload_base<Luau::TableIndexer>::_Storage" = type { %"struct.Luau::TableIndexer" }
%"struct.Luau::TableIndexer" = type { ptr, ptr }
%"struct.Luau::TypeLevel" = type { i32, i32 }
%"class.std::optional.2" = type { %"struct.std::_Optional_base.3" }
%"struct.std::_Optional_base.3" = type { %"struct.std::_Optional_payload.5" }
%"struct.std::_Optional_payload.5" = type { %"struct.std::_Optional_payload.base.9", [7 x i8] }
%"struct.std::_Optional_payload.base.9" = type { %"struct.std::_Optional_payload_base.base.8" }
%"struct.std::_Optional_payload_base.base.8" = type <{ %"union.std::_Optional_payload_base<std::__cxx11::basic_string<char>>::_Storage", i8 }>
%"union.std::_Optional_payload_base<std::__cxx11::basic_string<char>>::_Storage" = type { %"class.std::__cxx11::basic_string" }
%"class.std::vector" = type { %"struct.std::_Vector_base" }
%"struct.std::_Vector_base" = type { %"struct.std::_Vector_base<const Luau::Type *, std::allocator<const Luau::Type *>>::_Vector_impl" }
%"struct.std::_Vector_base<const Luau::Type *, std::allocator<const Luau::Type *>>::_Vector_impl" = type { %"struct.std::_Vector_base<const Luau::Type *, std::allocator<const Luau::Type *>>::_Vector_impl_data" }
%"struct.std::_Vector_base<const Luau::Type *, std::allocator<const Luau::Type *>>::_Vector_impl_data" = type { ptr, ptr, ptr }
%"class.std::vector.53" = type { %"struct.std::_Vector_base.54" }
%"struct.std::_Vector_base.54" = type { %"struct.std::_Vector_base<const Luau::TypePackVar *, std::allocator<const Luau::TypePackVar *>>::_Vector_impl" }
%"struct.std::_Vector_base<const Luau::TypePackVar *, std::allocator<const Luau::TypePackVar *>>::_Vector_impl" = type { %"struct.std::_Vector_base<const Luau::TypePackVar *, std::allocator<const Luau::TypePackVar *>>::_Vector_impl_data" }
%"struct.std::_Vector_base<const Luau::TypePackVar *, std::allocator<const Luau::TypePackVar *>>::_Vector_impl_data" = type { ptr, ptr, ptr }
%"struct.Luau::Location" = type { %"struct.Luau::Position", %"struct.Luau::Position" }
%"struct.Luau::Position" = type { i32, i32 }
%"class.std::vector.38" = type { %"struct.std::_Vector_base.39" }
%"struct.std::_Vector_base.39" = type { %"struct.std::_Vector_base<std::__cxx11::basic_string<char>, std::allocator<std::__cxx11::basic_string<char>>>::_Vector_impl" }
%"struct.std::_Vector_base<std::__cxx11::basic_string<char>, std::allocator<std::__cxx11::basic_string<char>>>::_Vector_impl" = type { %"struct.std::_Vector_base<std::__cxx11::basic_string<char>, std::allocator<std::__cxx11::basic_string<char>>>::_Vector_impl_data" }
%"struct.std::_Vector_base<std::__cxx11::basic_string<char>, std::allocator<std::__cxx11::basic_string<char>>>::_Vector_impl_data" = type { ptr, ptr, ptr }
%"class.std::optional.12" = type { %"struct.std::_Optional_base.13" }
%"struct.std::_Optional_base.13" = type { %"struct.std::_Optional_payload.15" }
%"struct.std::_Optional_payload.15" = type { %"struct.std::_Optional_payload_base.base.17", [3 x i8] }
%"struct.std::_Optional_payload_base.base.17" = type <{ %"union.std::_Optional_payload_base<Luau::Location>::_Storage", i8 }>
%"union.std::_Optional_payload_base<Luau::Location>::_Storage" = type { %"struct.Luau::Location" }
%"struct.Luau::Type" = type { %"class.Luau::Variant.113", i8, [7 x i8], %"class.std::optional.2", ptr }
%"class.Luau::Variant.113" = type { i32, [4 x i8], [336 x i8] }
%"class.std::__shared_count" = type { ptr }
%"struct.Luau::FunctionType" = type <{ %"class.std::optional.58", %"class.std::vector", %"class.std::vector.53", %"class.std::vector.68", %"class.std::vector.38", %"struct.Luau::TypeLevel", ptr, ptr, ptr, %"class.std::shared_ptr.73", i8, i8, i8, [5 x i8] }>
%"class.std::optional.58" = type { %"struct.std::_Optional_base.59" }
%"struct.std::_Optional_base.59" = type { %"struct.std::_Optional_payload.61" }
%"struct.std::_Optional_payload.61" = type { %"struct.std::_Optional_payload.base.65", [7 x i8] }
%"struct.std::_Optional_payload.base.65" = type { %"struct.std::_Optional_payload_base.base.64" }
%"struct.std::_Optional_payload_base.base.64" = type <{ %"union.std::_Optional_payload_base<Luau::FunctionDefinition>::_Storage", i8 }>
%"union.std::_Optional_payload_base<Luau::FunctionDefinition>::_Storage" = type { %"struct.Luau::FunctionDefinition" }
%"struct.Luau::FunctionDefinition" = type { %"class.std::optional.2", %"struct.Luau::Location", %"class.std::optional.12", %"struct.Luau::Location", [4 x i8] }
%"class.std::vector.68" = type { %"struct.std::_Vector_base.69" }
%"struct.std::_Vector_base.69" = type { %"struct.std::_Vector_base<std::optional<Luau::FunctionArgument>, std::allocator<std::optional<Luau::FunctionArgument>>>::_Vector_impl" }
%"struct.std::_Vector_base<std::optional<Luau::FunctionArgument>, std::allocator<std::optional<Luau::FunctionArgument>>>::_Vector_impl" = type { %"struct.std::_Vector_base<std::optional<Luau::FunctionArgument>, std::allocator<std::optional<Luau::FunctionArgument>>>::_Vector_impl_data" }
%"struct.std::_Vector_base<std::optional<Luau::FunctionArgument>, std::allocator<std::optional<Luau::FunctionArgument>>>::_Vector_impl_data" = type { ptr, ptr, ptr }
%"class.std::shared_ptr.73" = type { %"class.std::__shared_ptr.74" }
%"class.std::__shared_ptr.74" = type { ptr, %"class.std::__shared_count" }
%"struct.Luau::FreeType" = type { i32, %"struct.Luau::TypeLevel", ptr, i8, ptr, ptr }

; Function Attrs: mustprogress nounwind uwtable
define linkonce_odr dso_local noundef ptr @_ZNK4Luau7VariantIJNS_9Unifiable5BoundIPKNS_4TypeEEENS1_5ErrorIS5_EENS_8FreeTypeENS_11GenericTypeENS_13PrimitiveTypeENS_13SingletonTypeENS_11BlockedTypeENS_20PendingExpansionTypeENS_12FunctionTypeENS_9TableTypeENS_13MetatableTypeENS_9ClassTypeENS_7AnyTypeENS_9UnionTypeENS_16IntersectionTypeENS_8LazyTypeENS_11UnknownTypeENS_9NeverTypeENS_12NegationTypeENS_12NoRefineTypeENS_24TypeFunctionInstanceTypeEEE6get_ifISF_EEPKT_v(ptr noundef nonnull align 8 dereferenceable(344) %0) #2 comdat align 2 {
  %2 = alloca ptr, align 8
  %3 = alloca i32, align 4
  store ptr %0, ptr %2, align 8, !tbaa !337
  %4 = load ptr, ptr %2, align 8
  call void @llvm.lifetime.start.p0(i64 4, ptr %3) #20
  store i32 8, ptr %3, align 4, !tbaa !4
  %5 = getelementptr inbounds nuw %"class.Luau::Variant.113", ptr %4, i32 0, i32 0
  %6 = load i32, ptr %5, align 8, !tbaa !339
  %7 = icmp eq i32 8, %6
  br i1 %7, label %8, label %10

8:                                                ; preds = %1
  %9 = getelementptr inbounds nuw %"class.Luau::Variant.113", ptr %4, i32 0, i32 2
  br label %11

10:                                               ; preds = %1
  br label %11

11:                                               ; preds = %10, %8
  %12 = phi ptr [ %9, %8 ], [ null, %10 ]
  call void @llvm.lifetime.end.p0(i64 4, ptr %3) #20
  ret ptr %12
}

; Function Attrs: mustprogress nounwind uwtable
define linkonce_odr dso_local noundef ptr @_ZNK4Luau7VariantIJNS_9Unifiable5BoundIPKNS_4TypeEEENS1_5ErrorIS5_EENS_8FreeTypeENS_11GenericTypeENS_13PrimitiveTypeENS_13SingletonTypeENS_11BlockedTypeENS_20PendingExpansionTypeENS_12FunctionTypeENS_9TableTypeENS_13MetatableTypeENS_9ClassTypeENS_7AnyTypeENS_9UnionTypeENS_16IntersectionTypeENS_8LazyTypeENS_11UnknownTypeENS_9NeverTypeENS_12NegationTypeENS_12NoRefineTypeENS_24TypeFunctionInstanceTypeEEE6get_ifISG_EEPKT_v(ptr noundef nonnull align 8 dereferenceable(344) %0) #2 comdat align 2 {
  %2 = alloca ptr, align 8
  %3 = alloca i32, align 4
  store ptr %0, ptr %2, align 8, !tbaa !337
  %4 = load ptr, ptr %2, align 8
  call void @llvm.lifetime.start.p0(i64 4, ptr %3) #20
  store i32 9, ptr %3, align 4, !tbaa !4
  %5 = getelementptr inbounds nuw %"class.Luau::Variant.113", ptr %4, i32 0, i32 0
  %6 = load i32, ptr %5, align 8, !tbaa !339
  %7 = icmp eq i32 9, %6
  br i1 %7, label %8, label %10

8:                                                ; preds = %1
  %9 = getelementptr inbounds nuw %"class.Luau::Variant.113", ptr %4, i32 0, i32 2
  br label %11

10:                                               ; preds = %1
  br label %11

11:                                               ; preds = %10, %8
  %12 = phi ptr [ %9, %8 ], [ null, %10 ]
  call void @llvm.lifetime.end.p0(i64 4, ptr %3) #20
  ret ptr %12
}

; Function Attrs: mustprogress nounwind uwtable
define linkonce_odr dso_local noundef ptr @_ZNK4Luau7VariantIJNS_9Unifiable5BoundIPKNS_4TypeEEENS1_5ErrorIS5_EENS_8FreeTypeENS_11GenericTypeENS_13PrimitiveTypeENS_13SingletonTypeENS_11BlockedTypeENS_20PendingExpansionTypeENS_12FunctionTypeENS_9TableTypeENS_13MetatableTypeENS_9ClassTypeENS_7AnyTypeENS_9UnionTypeENS_16IntersectionTypeENS_8LazyTypeENS_11UnknownTypeENS_9NeverTypeENS_12NegationTypeENS_12NoRefineTypeENS_24TypeFunctionInstanceTypeEEE6get_ifIS9_EEPKT_v(ptr noundef nonnull align 8 dereferenceable(344) %0) #2 comdat align 2 {
  %2 = alloca ptr, align 8
  %3 = alloca i32, align 4
  store ptr %0, ptr %2, align 8, !tbaa !337
  %4 = load ptr, ptr %2, align 8
  call void @llvm.lifetime.start.p0(i64 4, ptr %3) #20
  store i32 2, ptr %3, align 4, !tbaa !4
  %5 = getelementptr inbounds nuw %"class.Luau::Variant.113", ptr %4, i32 0, i32 0
  %6 = load i32, ptr %5, align 8, !tbaa !339
  %7 = icmp eq i32 2, %6
  br i1 %7, label %8, label %10

8:                                                ; preds = %1
  %9 = getelementptr inbounds nuw %"class.Luau::Variant.113", ptr %4, i32 0, i32 2
  br label %11

10:                                               ; preds = %1
  br label %11

11:                                               ; preds = %10, %8
  %12 = phi ptr [ %9, %8 ], [ null, %10 ]
  call void @llvm.lifetime.end.p0(i64 4, ptr %3) #20
  ret ptr %12
}

; Function Attrs: mustprogress uwtable
define linkonce_odr dso_local noundef ptr @_ZN4Luau6get_ifINS_12FunctionTypeEJNS_9Unifiable5BoundIPKNS_4TypeEEENS2_5ErrorIS6_EENS_8FreeTypeENS_11GenericTypeENS_13PrimitiveTypeENS_13SingletonTypeENS_11BlockedTypeENS_20PendingExpansionTypeES1_NS_9TableTypeENS_13MetatableTypeENS_9ClassTypeENS_7AnyTypeENS_9UnionTypeENS_16IntersectionTypeENS_8LazyTypeENS_11UnknownTypeENS_9NeverTypeENS_12NegationTypeENS_12NoRefineTypeENS_24TypeFunctionInstanceTypeEEEEPKT_PKNS_7VariantIJDpT0_EEE(ptr noundef %0) #3 comdat {
  %2 = alloca ptr, align 8
  store ptr %0, ptr %2, align 8, !tbaa !337
  %3 = load ptr, ptr %2, align 8, !tbaa !337
  %4 = icmp ne ptr %3, null
  br i1 %4, label %5, label %8

5:                                                ; preds = %1
  %6 = load ptr, ptr %2, align 8, !tbaa !337
  %7 = call noundef ptr @_ZNK4Luau7VariantIJNS_9Unifiable5BoundIPKNS_4TypeEEENS1_5ErrorIS5_EENS_8FreeTypeENS_11GenericTypeENS_13PrimitiveTypeENS_13SingletonTypeENS_11BlockedTypeENS_20PendingExpansionTypeENS_12FunctionTypeENS_9TableTypeENS_13MetatableTypeENS_9ClassTypeENS_7AnyTypeENS_9UnionTypeENS_16IntersectionTypeENS_8LazyTypeENS_11UnknownTypeENS_9NeverTypeENS_12NegationTypeENS_12NoRefineTypeENS_24TypeFunctionInstanceTypeEEE6get_ifISF_EEPKT_v(ptr noundef nonnull align 8 dereferenceable(344) %6)
  br label %9

8:                                                ; preds = %1
  br label %9

9:                                                ; preds = %8, %5
  %10 = phi ptr [ %7, %5 ], [ null, %8 ]
  ret ptr %10
}

; Function Attrs: mustprogress uwtable
define linkonce_odr dso_local noundef ptr @_ZN4Luau6get_ifINS_9TableTypeEJNS_9Unifiable5BoundIPKNS_4TypeEEENS2_5ErrorIS6_EENS_8FreeTypeENS_11GenericTypeENS_13PrimitiveTypeENS_13SingletonTypeENS_11BlockedTypeENS_20PendingExpansionTypeENS_12FunctionTypeES1_NS_13MetatableTypeENS_9ClassTypeENS_7AnyTypeENS_9UnionTypeENS_16IntersectionTypeENS_8LazyTypeENS_11UnknownTypeENS_9NeverTypeENS_12NegationTypeENS_12NoRefineTypeENS_24TypeFunctionInstanceTypeEEEEPKT_PKNS_7VariantIJDpT0_EEE(ptr noundef %0) #3 comdat {
  %2 = alloca ptr, align 8
  store ptr %0, ptr %2, align 8, !tbaa !337
  %3 = load ptr, ptr %2, align 8, !tbaa !337
  %4 = icmp ne ptr %3, null
  br i1 %4, label %5, label %8

5:                                                ; preds = %1
  %6 = load ptr, ptr %2, align 8, !tbaa !337
  %7 = call noundef ptr @_ZNK4Luau7VariantIJNS_9Unifiable5BoundIPKNS_4TypeEEENS1_5ErrorIS5_EENS_8FreeTypeENS_11GenericTypeENS_13PrimitiveTypeENS_13SingletonTypeENS_11BlockedTypeENS_20PendingExpansionTypeENS_12FunctionTypeENS_9TableTypeENS_13MetatableTypeENS_9ClassTypeENS_7AnyTypeENS_9UnionTypeENS_16IntersectionTypeENS_8LazyTypeENS_11UnknownTypeENS_9NeverTypeENS_12NegationTypeENS_12NoRefineTypeENS_24TypeFunctionInstanceTypeEEE6get_ifISG_EEPKT_v(ptr noundef nonnull align 8 dereferenceable(344) %6)
  br label %9

8:                                                ; preds = %1
  br label %9

9:                                                ; preds = %8, %5
  %10 = phi ptr [ %7, %5 ], [ null, %8 ]
  ret ptr %10
}

; Function Attrs: mustprogress uwtable
define linkonce_odr dso_local noundef ptr @_ZN4Luau6get_ifINS_8FreeTypeEJNS_9Unifiable5BoundIPKNS_4TypeEEENS2_5ErrorIS6_EES1_NS_11GenericTypeENS_13PrimitiveTypeENS_13SingletonTypeENS_11BlockedTypeENS_20PendingExpansionTypeENS_12FunctionTypeENS_9TableTypeENS_13MetatableTypeENS_9ClassTypeENS_7AnyTypeENS_9UnionTypeENS_16IntersectionTypeENS_8LazyTypeENS_11UnknownTypeENS_9NeverTypeENS_12NegationTypeENS_12NoRefineTypeENS_24TypeFunctionInstanceTypeEEEEPKT_PKNS_7VariantIJDpT0_EEE(ptr noundef %0) #3 comdat {
  %2 = alloca ptr, align 8
  store ptr %0, ptr %2, align 8, !tbaa !337
  %3 = load ptr, ptr %2, align 8, !tbaa !337
  %4 = icmp ne ptr %3, null
  br i1 %4, label %5, label %8

5:                                                ; preds = %1
  %6 = load ptr, ptr %2, align 8, !tbaa !337
  %7 = call noundef ptr @_ZNK4Luau7VariantIJNS_9Unifiable5BoundIPKNS_4TypeEEENS1_5ErrorIS5_EENS_8FreeTypeENS_11GenericTypeENS_13PrimitiveTypeENS_13SingletonTypeENS_11BlockedTypeENS_20PendingExpansionTypeENS_12FunctionTypeENS_9TableTypeENS_13MetatableTypeENS_9ClassTypeENS_7AnyTypeENS_9UnionTypeENS_16IntersectionTypeENS_8LazyTypeENS_11UnknownTypeENS_9NeverTypeENS_12NegationTypeENS_12NoRefineTypeENS_24TypeFunctionInstanceTypeEEE6get_ifIS9_EEPKT_v(ptr noundef nonnull align 8 dereferenceable(344) %6)
  br label %9

8:                                                ; preds = %1
  br label %9

9:                                                ; preds = %8, %5
  %10 = phi ptr [ %7, %5 ], [ null, %8 ]
  ret ptr %10
}

; Function Attrs: mustprogress uwtable
define linkonce_odr dso_local noundef ptr @_ZN4Luau3getINS_12FunctionTypeEEEPKT_PKNS_4TypeE(ptr noundef %0) #3 comdat {
  %2 = alloca ptr, align 8
  store ptr %0, ptr %2, align 8, !tbaa !29
  %3 = load ptr, ptr %2, align 8, !tbaa !29
  %4 = getelementptr inbounds nuw %"struct.Luau::Type", ptr %3, i32 0, i32 0
  %5 = call noundef ptr @_ZN4Luau6get_ifINS_12FunctionTypeEJNS_9Unifiable5BoundIPKNS_4TypeEEENS2_5ErrorIS6_EENS_8FreeTypeENS_11GenericTypeENS_13PrimitiveTypeENS_13SingletonTypeENS_11BlockedTypeENS_20PendingExpansionTypeES1_NS_9TableTypeENS_13MetatableTypeENS_9ClassTypeENS_7AnyTypeENS_9UnionTypeENS_16IntersectionTypeENS_8LazyTypeENS_11UnknownTypeENS_9NeverTypeENS_12NegationTypeENS_12NoRefineTypeENS_24TypeFunctionInstanceTypeEEEEPKT_PKNS_7VariantIJDpT0_EEE(ptr noundef %4)
  ret ptr %5
}

; Function Attrs: mustprogress uwtable
define linkonce_odr dso_local noundef ptr @_ZN4Luau3getINS_9TableTypeEEEPKT_PKNS_4TypeE(ptr noundef %0) #3 comdat {
  %2 = alloca ptr, align 8
  store ptr %0, ptr %2, align 8, !tbaa !29
  %3 = load ptr, ptr %2, align 8, !tbaa !29
  %4 = getelementptr inbounds nuw %"struct.Luau::Type", ptr %3, i32 0, i32 0
  %5 = call noundef ptr @_ZN4Luau6get_ifINS_9TableTypeEJNS_9Unifiable5BoundIPKNS_4TypeEEENS2_5ErrorIS6_EENS_8FreeTypeENS_11GenericTypeENS_13PrimitiveTypeENS_13SingletonTypeENS_11BlockedTypeENS_20PendingExpansionTypeENS_12FunctionTypeES1_NS_13MetatableTypeENS_9ClassTypeENS_7AnyTypeENS_9UnionTypeENS_16IntersectionTypeENS_8LazyTypeENS_11UnknownTypeENS_9NeverTypeENS_12NegationTypeENS_12NoRefineTypeENS_24TypeFunctionInstanceTypeEEEEPKT_PKNS_7VariantIJDpT0_EEE(ptr noundef %4)
  ret ptr %5
}

; Function Attrs: mustprogress uwtable
define linkonce_odr dso_local noundef ptr @_ZN4Luau3getINS_8FreeTypeEEEPKT_PKNS_4TypeE(ptr noundef %0) #3 comdat {
  %2 = alloca ptr, align 8
  store ptr %0, ptr %2, align 8, !tbaa !29
  %3 = load ptr, ptr %2, align 8, !tbaa !29
  %4 = getelementptr inbounds nuw %"struct.Luau::Type", ptr %3, i32 0, i32 0
  %5 = call noundef ptr @_ZN4Luau6get_ifINS_8FreeTypeEJNS_9Unifiable5BoundIPKNS_4TypeEEENS2_5ErrorIS6_EES1_NS_11GenericTypeENS_13PrimitiveTypeENS_13SingletonTypeENS_11BlockedTypeENS_20PendingExpansionTypeENS_12FunctionTypeENS_9TableTypeENS_13MetatableTypeENS_9ClassTypeENS_7AnyTypeENS_9UnionTypeENS_16IntersectionTypeENS_8LazyTypeENS_11UnknownTypeENS_9NeverTypeENS_12NegationTypeENS_12NoRefineTypeENS_24TypeFunctionInstanceTypeEEEEPKT_PKNS_7VariantIJDpT0_EEE(ptr noundef %4)
  ret ptr %5
}

; Function Attrs: mustprogress uwtable
define dso_local noundef ptr @_ZN4Luau6followEPKNS_4TypeE(ptr noundef %0) #3 {
  %2 = alloca ptr, align 8
  store ptr %0, ptr %2, align 8, !tbaa !29
  %3 = load ptr, ptr %2, align 8, !tbaa !29
  %4 = call noundef ptr @_ZN4Luau6followEPKNS_4TypeENS_12FollowOptionE(ptr noundef %3, i32 noundef 0)
  ret ptr %4
}

; Function Attrs: mustprogress uwtable
define dso_local noundef ptr @_ZN4Luau8getLevelEPKNS_4TypeE(ptr noundef %0) #3 {
  %2 = alloca ptr, align 8
  %3 = alloca ptr, align 8
  %4 = alloca ptr, align 8
  %5 = alloca i32, align 4
  %6 = alloca ptr, align 8
  %7 = alloca ptr, align 8
  store ptr %0, ptr %3, align 8, !tbaa !29
  %8 = load ptr, ptr %3, align 8, !tbaa !29
  %9 = call noundef ptr @_ZN4Luau6followEPKNS_4TypeE(ptr noundef %8)
  store ptr %9, ptr %3, align 8, !tbaa !29
  call void @llvm.lifetime.start.p0(i64 8, ptr %4) #20
  %10 = load ptr, ptr %3, align 8, !tbaa !29
  %11 = call noundef ptr @_ZN4Luau3getINS_8FreeTypeEEEPKT_PKNS_4TypeE(ptr noundef %10)
  store ptr %11, ptr %4, align 8, !tbaa !181
  %12 = load ptr, ptr %4, align 8, !tbaa !181
  %13 = icmp ne ptr %12, null
  br i1 %13, label %14, label %17

14:                                               ; preds = %1
  %15 = load ptr, ptr %4, align 8, !tbaa !181
  %16 = getelementptr inbounds nuw %"struct.Luau::FreeType", ptr %15, i32 0, i32 1
  store ptr %16, ptr %2, align 8
  store i32 1, ptr %5, align 4
  br label %36

17:                                               ; preds = %1
  call void @llvm.lifetime.start.p0(i64 8, ptr %6) #20
  %18 = load ptr, ptr %3, align 8, !tbaa !29
  %19 = call noundef ptr @_ZN4Luau3getINS_9TableTypeEEEPKT_PKNS_4TypeE(ptr noundef %18)
  store ptr %19, ptr %6, align 8, !tbaa !42
  %20 = load ptr, ptr %6, align 8, !tbaa !42
  %21 = icmp ne ptr %20, null
  br i1 %21, label %22, label %25

22:                                               ; preds = %17
  %23 = load ptr, ptr %6, align 8, !tbaa !42
  %24 = getelementptr inbounds nuw %"struct.Luau::TableType", ptr %23, i32 0, i32 3
  store ptr %24, ptr %2, align 8
  store i32 1, ptr %5, align 4
  br label %35

25:                                               ; preds = %17
  call void @llvm.lifetime.start.p0(i64 8, ptr %7) #20
  %26 = load ptr, ptr %3, align 8, !tbaa !29
  %27 = call noundef ptr @_ZN4Luau3getINS_12FunctionTypeEEEPKT_PKNS_4TypeE(ptr noundef %26)
  store ptr %27, ptr %7, align 8, !tbaa !142
  %28 = load ptr, ptr %7, align 8, !tbaa !142
  %29 = icmp ne ptr %28, null
  br i1 %29, label %30, label %33

30:                                               ; preds = %25
  %31 = load ptr, ptr %7, align 8, !tbaa !142
  %32 = getelementptr inbounds nuw %"struct.Luau::FunctionType", ptr %31, i32 0, i32 5
  store ptr %32, ptr %2, align 8
  store i32 1, ptr %5, align 4
  br label %34

33:                                               ; preds = %25
  store ptr null, ptr %2, align 8
  store i32 1, ptr %5, align 4
  br label %34

34:                                               ; preds = %33, %30
  call void @llvm.lifetime.end.p0(i64 8, ptr %7) #20
  br label %35

35:                                               ; preds = %34, %22
  call void @llvm.lifetime.end.p0(i64 8, ptr %6) #20
  br label %36

36:                                               ; preds = %35, %14
  call void @llvm.lifetime.end.p0(i64 8, ptr %4) #20
  %37 = load ptr, ptr %2, align 8
  ret ptr %37
}

; Function Attrs: mustprogress uwtable
define dso_local noundef ptr @_ZN4Luau15getMutableLevelEPKNS_4TypeE(ptr noundef %0) #3 {
  %2 = alloca ptr, align 8
  store ptr %0, ptr %2, align 8, !tbaa !29
  %3 = load ptr, ptr %2, align 8, !tbaa !29
  %4 = call noundef ptr @_ZN4Luau8getLevelEPKNS_4TypeE(ptr noundef %3)
  ret ptr %4
}