; Function Attrs: mustprogress uwtable
define dso_local noundef ptr @_ZN4Luau15getMutableLevelEPKNS_4TypeE(ptr noundef %0) local_unnamed_addr #2 {
  %2 = tail call noundef ptr @_ZN4Luau6followEPKNS_4TypeENS_12FollowOptionE(ptr noundef %0, i32 noundef 0)
  %.not.i.i.i = icmp eq ptr %2, null
  br i1 %.not.i.i.i, label %_ZN4Luau3getINS_12FunctionTypeEEEPKT_PKNS_4TypeE.exit.i, label %3

3:                                                ; preds = %1
  %4 = load i32, ptr %2, align 8, !tbaa !8
  switch i32 %4, label %7 [
    i32 2, label %_ZN4Luau3getINS_8FreeTypeEEEPKT_PKNS_4TypeE.exit.i
    i32 9, label %_ZN4Luau3getINS_9TableTypeEEEPKT_PKNS_4TypeE.exit.i
  ]

_ZN4Luau3getINS_8FreeTypeEEEPKT_PKNS_4TypeE.exit.i: ; preds = %3
  %5 = getelementptr inbounds nuw i8, ptr %2, i64 12
  br label %_ZN4Luau8getLevelEPKNS_4TypeE.exit

_ZN4Luau3getINS_9TableTypeEEEPKT_PKNS_4TypeE.exit.i: ; preds = %3
  %6 = getelementptr inbounds nuw i8, ptr %2, i64 84
  br label %_ZN4Luau8getLevelEPKNS_4TypeE.exit

7:                                                ; preds = %3
  %8 = icmp eq i32 %4, 8
  %9 = getelementptr inbounds nuw i8, ptr %2, i64 8
  %10 = select i1 %8, ptr %9, ptr null
  br label %_ZN4Luau3getINS_12FunctionTypeEEEPKT_PKNS_4TypeE.exit.i

_ZN4Luau3getINS_12FunctionTypeEEEPKT_PKNS_4TypeE.exit.i: ; preds = %7, %1
  %11 = phi ptr [ %10, %7 ], [ null, %1 ]
  %.not15.i = icmp eq ptr %11, null
  %12 = getelementptr inbounds nuw i8, ptr %11, i64 200
  %.2.i = select i1 %.not15.i, ptr null, ptr %12
  br label %_ZN4Luau8getLevelEPKNS_4TypeE.exit

_ZN4Luau8getLevelEPKNS_4TypeE.exit:               ; preds = %_ZN4Luau3getINS_8FreeTypeEEEPKT_PKNS_4TypeE.exit.i, %_ZN4Luau3getINS_9TableTypeEEEPKT_PKNS_4TypeE.exit.i, %_ZN4Luau3getINS_12FunctionTypeEEEPKT_PKNS_4TypeE.exit.i
  %.0.i = phi ptr [ %5, %_ZN4Luau3getINS_8FreeTypeEEEPKT_PKNS_4TypeE.exit.i ], [ %6, %_ZN4Luau3getINS_9TableTypeEEEPKT_PKNS_4TypeE.exit.i ], [ %.2.i, %_ZN4Luau3getINS_12FunctionTypeEEEPKT_PKNS_4TypeE.exit.i ]
  ret ptr %.0.i
}